target datalayout = "e-m:e-p270:32:32-p271:32:32-p272:64:64-i64:64-i128:128-f80:128-n8:16:32:64-S128"
target triple = "x86_64-pc-linux-gnu"

%struct.SDL_HIDAPI_Device = type { ptr, ptr, ptr, ptr, i16, i16, i16, ptr, %struct.SDL_GUID, i32, i32, i32, i32, i16, i16, i8, i32, i32, i32, ptr, ptr, ptr, ptr, %struct.SDL_AtomicInt, i32, ptr, i8, i8, i8, ptr, i32, ptr, ptr }
%struct.SDL_GUID = type { [16 x i8] }
%struct.SDL_AtomicInt = type { i32 }
%struct.SDL_DriverGameCube_Context = type { i8, [4 x i32], [4 x i8], [24 x i8], [24 x i8], [4 x i8], [5 x i8], i8, i8 }
%struct.SDL_Joystick = type { i32, ptr, ptr, ptr, %struct.SDL_GUID, i16, i64, i8, i8, i32, ptr, i32, ptr, i32, ptr, i32, ptr, i32, ptr, i32, i32, ptr, i16, i16, i64, i64, i16, i16, i64, i64, i8, i8, i8, i64, i8, i32, i32, i32, i8, i32, ptr, i32, ptr, [3 x [3 x float]], i64, ptr, ptr, i32, i32, ptr }

; Function Attrs: nounwind uwtable
define internal i32 @HIDAPI_DriverGameCube_GetJoystickCapabilities(ptr noundef %0, ptr noundef %1) #0 {
  %3 = alloca ptr, align 8
  %4 = alloca ptr, align 8
  %5 = alloca ptr, align 8
  %6 = alloca i32, align 4
  %7 = alloca i8, align 1
  store ptr %0, ptr %3, align 8
  store ptr %1, ptr %4, align 8
  call void @llvm.lifetime.start.p0(i64 8, ptr %5) #5
  %8 = load ptr, ptr %3, align 8
  %9 = getelementptr inbounds nuw %struct.SDL_HIDAPI_Device, ptr %8, i32 0, i32 20
  %10 = load ptr, ptr %9, align 8
  store ptr %10, ptr %5, align 8
  call void @llvm.lifetime.start.p0(i64 4, ptr %6) #5
  store i32 0, ptr %6, align 4
  call void @SDL_AssertJoysticksLocked()
  %11 = load ptr, ptr %5, align 8
  %12 = getelementptr inbounds nuw %struct.SDL_DriverGameCube_Context, ptr %11, i32 0, i32 0
  %13 = load i8, ptr %12, align 4, !range !3, !noundef !4
  %14 = trunc i8 %13 to i1
  br i1 %14, label %59, label %15

15:                                               ; preds = %2
  call void @llvm.lifetime.start.p0(i64 1, ptr %7) #5
  store i8 0, ptr %7, align 1
  br label %16

16:                                               ; preds = %53, %15
  %17 = load i8, ptr %7, align 1
  %18 = zext i8 %17 to i32
  %19 = icmp slt i32 %18, 4
  br i1 %19, label %20, label %58

20:                                               ; preds = %16
  %21 = load ptr, ptr %4, align 8
  %22 = getelementptr inbounds nuw %struct.SDL_Joystick, ptr %21, i32 0, i32 0
  %23 = load i32, ptr %22, align 8
  %24 = load ptr, ptr %5, align 8
  %25 = getelementptr inbounds nuw %struct.SDL_DriverGameCube_Context, ptr %24, i32 0, i32 1
  %26 = load i8, ptr %7, align 1
  %27 = zext i8 %26 to i64
  %28 = getelementptr inbounds nuw [4 x i32], ptr %25, i64 0, i64 %27
  %29 = load i32, ptr %28, align 4
  %30 = icmp eq i32 %23, %29
  br i1 %30, label %31, label %52

31:                                               ; preds = %20
  %32 = load ptr, ptr %5, align 8
  %33 = getelementptr inbounds nuw %struct.SDL_DriverGameCube_Context, ptr %32, i32 0, i32 2
  %34 = load i8, ptr %7, align 1
  %35 = zext i8 %34 to i64
  %36 = getelementptr inbounds nuw [4 x i8], ptr %33, i64 0, i64 %35
  %37 = load i8, ptr %36, align 1
  %38 = icmp ne i8 %37, 0
  br i1 %38, label %51, label %39

39:                                               ; preds = %31
  %40 = load ptr, ptr %5, align 8
  %41 = getelementptr inbounds nuw %struct.SDL_DriverGameCube_Context, ptr %40, i32 0, i32 5
  %42 = load i8, ptr %7, align 1
  %43 = zext i8 %42 to i64
  %44 = getelementptr inbounds nuw [4 x i8], ptr %41, i64 0, i64 %43
  %45 = load i8, ptr %44, align 1
  %46 = zext i8 %45 to i32
  %47 = icmp ne i32 %46, 0
  br i1 %47, label %48, label %51

48:                                               ; preds = %39
  %49 = load i32, ptr %6, align 4
  %50 = or i32 %49, 16
  store i32 %50, ptr %6, align 4
  br label %58

51:                                               ; preds = %39, %31
  br label %52

52:                                               ; preds = %51, %20
  br label %53

53:                                               ; preds = %52
  %54 = load i8, ptr %7, align 1
  %55 = zext i8 %54 to i32
  %56 = add nsw i32 %55, 1
  %57 = trunc i32 %56 to i8
  store i8 %57, ptr %7, align 1
  br label %16, !llvm.loop !13

58:                                               ; preds = %48, %16
  call void @llvm.lifetime.end.p0(i64 1, ptr %7) #5
  br label %59

59:                                               ; preds = %58, %2
  %60 = load i32, ptr %6, align 4
  call void @llvm.lifetime.end.p0(i64 4, ptr %6) #5
  call void @llvm.lifetime.end.p0(i64 8, ptr %5) #5
  ret i32 %60
}