; Function Attrs: nounwind uwtable
define internal range(i32 0, 17) i32 @HIDAPI_DriverGameCube_GetJoystickCapabilities(ptr noundef readonly captures(none) %0, ptr noundef readonly captures(none) %1) #0 {
  %3 = getelementptr inbounds nuw i8, ptr %0, i64 112
  %4 = load ptr, ptr %3, align 8
  tail call void @SDL_AssertJoysticksLocked() #7
  %5 = load i8, ptr %4, align 4, !range !3, !noundef !9
  %6 = trunc nuw i8 %5 to i1
  br i1 %6, label %.loopexit, label %.preheader

.preheader:                                       ; preds = %2
  %7 = getelementptr inbounds nuw i8, ptr %4, i64 72
  %8 = load i32, ptr %1, align 8
  %9 = getelementptr inbounds nuw i8, ptr %4, i64 4
  %10 = getelementptr inbounds nuw i8, ptr %4, i64 20
  br label %11

11:                                               ; preds = %.preheader, %21
  %indvars.iv = phi i64 [ 0, %.preheader ], [ %indvars.iv.next, %21 ]
  %12 = getelementptr inbounds nuw [4 x i32], ptr %9, i64 0, i64 %indvars.iv
  %13 = load i32, ptr %12, align 4
  %14 = icmp eq i32 %8, %13
  br i1 %14, label %15, label %21

15:                                               ; preds = %11
  %16 = getelementptr inbounds nuw [4 x i8], ptr %10, i64 0, i64 %indvars.iv
  %17 = load i8, ptr %16, align 1
  %.not = icmp eq i8 %17, 0
  br i1 %.not, label %18, label %21

18:                                               ; preds = %15
  %19 = getelementptr inbounds nuw [4 x i8], ptr %7, i64 0, i64 %indvars.iv
  %20 = load i8, ptr %19, align 1
  %.not14 = icmp eq i8 %20, 0
  br i1 %.not14, label %21, label %.loopexit

21:                                               ; preds = %11, %18, %15
  %indvars.iv.next = add nuw nsw i64 %indvars.iv, 1
  %exitcond.not = icmp eq i64 %indvars.iv.next, 4
  br i1 %exitcond.not, label %.loopexit, label %11, !llvm.loop !14

.loopexit:                                        ; preds = %21, %18, %2
  %.012 = phi i32 [ 0, %2 ], [ 16, %18 ], [ 0, %21 ]
  ret i32 %.012
}